
LCD_Project.elf:     file format elf32-avr

Sections:
Idx Name          Size      VMA       LMA       File off  Algn
  0 .text         00000438  00000000  00000000  00000074  2**1
                  CONTENTS, ALLOC, LOAD, READONLY, CODE
  1 .data         00000014  00800060  00000438  000004ac  2**0
                  CONTENTS, ALLOC, LOAD, DATA
  2 .comment      00000030  00000000  00000000  000004c0  2**0
                  CONTENTS, READONLY
  3 .note.gnu.avr.deviceinfo 0000003c  00000000  00000000  000004f0  2**2
                  CONTENTS, READONLY
  4 .debug_aranges 000000b0  00000000  00000000  0000052c  2**0
                  CONTENTS, READONLY, DEBUGGING
  5 .debug_info   00000e72  00000000  00000000  000005dc  2**0
                  CONTENTS, READONLY, DEBUGGING
  6 .debug_abbrev 00000747  00000000  00000000  0000144e  2**0
                  CONTENTS, READONLY, DEBUGGING
  7 .debug_line   0000067c  00000000  00000000  00001b95  2**0
                  CONTENTS, READONLY, DEBUGGING
  8 .debug_frame  0000013c  00000000  00000000  00002214  2**2
                  CONTENTS, READONLY, DEBUGGING
  9 .debug_str    0000042b  00000000  00000000  00002350  2**0
                  CONTENTS, READONLY, DEBUGGING
 10 .debug_loc    00000757  00000000  00000000  0000277b  2**0
                  CONTENTS, READONLY, DEBUGGING
 11 .debug_ranges 00000080  00000000  00000000  00002ed2  2**0
                  CONTENTS, READONLY, DEBUGGING

Disassembly of section .text:

00000000 <__vectors>:
   0:	0c 94 2a 00 	jmp	0x54	; 0x54 <__ctors_end>
   4:	0c 94 3f 00 	jmp	0x7e	; 0x7e <__bad_interrupt>
   8:	0c 94 3f 00 	jmp	0x7e	; 0x7e <__bad_interrupt>
   c:	0c 94 3f 00 	jmp	0x7e	; 0x7e <__bad_interrupt>
  10:	0c 94 3f 00 	jmp	0x7e	; 0x7e <__bad_interrupt>
  14:	0c 94 3f 00 	jmp	0x7e	; 0x7e <__bad_interrupt>
  18:	0c 94 3f 00 	jmp	0x7e	; 0x7e <__bad_interrupt>
  1c:	0c 94 3f 00 	jmp	0x7e	; 0x7e <__bad_interrupt>
  20:	0c 94 3f 00 	jmp	0x7e	; 0x7e <__bad_interrupt>
  24:	0c 94 3f 00 	jmp	0x7e	; 0x7e <__bad_interrupt>
  28:	0c 94 3f 00 	jmp	0x7e	; 0x7e <__bad_interrupt>
  2c:	0c 94 3f 00 	jmp	0x7e	; 0x7e <__bad_interrupt>
  30:	0c 94 3f 00 	jmp	0x7e	; 0x7e <__bad_interrupt>
  34:	0c 94 3f 00 	jmp	0x7e	; 0x7e <__bad_interrupt>
  38:	0c 94 3f 00 	jmp	0x7e	; 0x7e <__bad_interrupt>
  3c:	0c 94 3f 00 	jmp	0x7e	; 0x7e <__bad_interrupt>
  40:	0c 94 3f 00 	jmp	0x7e	; 0x7e <__bad_interrupt>
  44:	0c 94 3f 00 	jmp	0x7e	; 0x7e <__bad_interrupt>
  48:	0c 94 3f 00 	jmp	0x7e	; 0x7e <__bad_interrupt>
  4c:	0c 94 3f 00 	jmp	0x7e	; 0x7e <__bad_interrupt>
  50:	0c 94 3f 00 	jmp	0x7e	; 0x7e <__bad_interrupt>

00000054 <__ctors_end>:
  54:	11 24       	eor	r1, r1
  56:	1f be       	out	0x3f, r1	; 63
  58:	cf e5       	ldi	r28, 0x5F	; 95
  5a:	d8 e0       	ldi	r29, 0x08	; 8
  5c:	de bf       	out	0x3e, r29	; 62
  5e:	cd bf       	out	0x3d, r28	; 61

00000060 <__do_copy_data>:
  60:	10 e0       	ldi	r17, 0x00	; 0
  62:	a0 e6       	ldi	r26, 0x60	; 96
  64:	b0 e0       	ldi	r27, 0x00	; 0
  66:	e8 e3       	ldi	r30, 0x38	; 56
  68:	f4 e0       	ldi	r31, 0x04	; 4
  6a:	02 c0       	rjmp	.+4      	; 0x70 <__do_copy_data+0x10>
  6c:	05 90       	lpm	r0, Z+
  6e:	0d 92       	st	X+, r0
  70:	a4 37       	cpi	r26, 0x74	; 116
  72:	b1 07       	cpc	r27, r17
  74:	d9 f7       	brne	.-10     	; 0x6c <__do_copy_data+0xc>
  76:	0e 94 0b 02 	call	0x416	; 0x416 <main>
  7a:	0c 94 1a 02 	jmp	0x434	; 0x434 <_exit>

0000007e <__bad_interrupt>:
  7e:	0c 94 00 00 	jmp	0	; 0x0 <__vectors>

00000082 <DIO_SetPinDir>:
			case DIO_PORTC :
		    PORTC = Val;
			break;
			
			case DIO_PORTD :
			PORTD = Val;
  82:	44 23       	and	r20, r20
  84:	b9 f1       	breq	.+110    	; 0xf4 <DIO_SetPinDir+0x72>
  86:	41 30       	cpi	r20, 0x01	; 1
  88:	09 f0       	breq	.+2      	; 0x8c <DIO_SetPinDir+0xa>
  8a:	6b c0       	rjmp	.+214    	; 0x162 <DIO_SetPinDir+0xe0>
  8c:	81 30       	cpi	r24, 0x01	; 1
  8e:	89 f0       	breq	.+34     	; 0xb2 <DIO_SetPinDir+0x30>
  90:	28 f0       	brcs	.+10     	; 0x9c <DIO_SetPinDir+0x1a>
  92:	82 30       	cpi	r24, 0x02	; 2
  94:	c9 f0       	breq	.+50     	; 0xc8 <DIO_SetPinDir+0x46>
  96:	83 30       	cpi	r24, 0x03	; 3
  98:	11 f1       	breq	.+68     	; 0xde <DIO_SetPinDir+0x5c>
  9a:	08 95       	ret
  9c:	2a b3       	in	r18, 0x1a	; 26
  9e:	81 e0       	ldi	r24, 0x01	; 1
  a0:	90 e0       	ldi	r25, 0x00	; 0
  a2:	02 c0       	rjmp	.+4      	; 0xa8 <DIO_SetPinDir+0x26>
  a4:	88 0f       	add	r24, r24
  a6:	99 1f       	adc	r25, r25
  a8:	6a 95       	dec	r22
  aa:	e2 f7       	brpl	.-8      	; 0xa4 <DIO_SetPinDir+0x22>
  ac:	82 2b       	or	r24, r18
  ae:	8a bb       	out	0x1a, r24	; 26
  b0:	08 95       	ret
  b2:	27 b3       	in	r18, 0x17	; 23
  b4:	81 e0       	ldi	r24, 0x01	; 1
  b6:	90 e0       	ldi	r25, 0x00	; 0
  b8:	02 c0       	rjmp	.+4      	; 0xbe <DIO_SetPinDir+0x3c>
  ba:	88 0f       	add	r24, r24
  bc:	99 1f       	adc	r25, r25
  be:	6a 95       	dec	r22
  c0:	e2 f7       	brpl	.-8      	; 0xba <DIO_SetPinDir+0x38>
  c2:	82 2b       	or	r24, r18
  c4:	87 bb       	out	0x17, r24	; 23
  c6:	08 95       	ret
  c8:	24 b3       	in	r18, 0x14	; 20
  ca:	81 e0       	ldi	r24, 0x01	; 1
  cc:	90 e0       	ldi	r25, 0x00	; 0
  ce:	02 c0       	rjmp	.+4      	; 0xd4 <DIO_SetPinDir+0x52>
  d0:	88 0f       	add	r24, r24
  d2:	99 1f       	adc	r25, r25
  d4:	6a 95       	dec	r22
  d6:	e2 f7       	brpl	.-8      	; 0xd0 <DIO_SetPinDir+0x4e>
  d8:	82 2b       	or	r24, r18
  da:	84 bb       	out	0x14, r24	; 20
  dc:	08 95       	ret
  de:	21 b3       	in	r18, 0x11	; 17
  e0:	81 e0       	ldi	r24, 0x01	; 1
  e2:	90 e0       	ldi	r25, 0x00	; 0
  e4:	02 c0       	rjmp	.+4      	; 0xea <DIO_SetPinDir+0x68>
  e6:	88 0f       	add	r24, r24
  e8:	99 1f       	adc	r25, r25
  ea:	6a 95       	dec	r22
  ec:	e2 f7       	brpl	.-8      	; 0xe6 <DIO_SetPinDir+0x64>
  ee:	82 2b       	or	r24, r18
  f0:	81 bb       	out	0x11, r24	; 17
  f2:	08 95       	ret
  f4:	81 30       	cpi	r24, 0x01	; 1
  f6:	91 f0       	breq	.+36     	; 0x11c <DIO_SetPinDir+0x9a>
  f8:	28 f0       	brcs	.+10     	; 0x104 <DIO_SetPinDir+0x82>
  fa:	82 30       	cpi	r24, 0x02	; 2
  fc:	d9 f0       	breq	.+54     	; 0x134 <DIO_SetPinDir+0xb2>
  fe:	83 30       	cpi	r24, 0x03	; 3
 100:	29 f1       	breq	.+74     	; 0x14c <DIO_SetPinDir+0xca>
 102:	08 95       	ret
 104:	2a b3       	in	r18, 0x1a	; 26
 106:	81 e0       	ldi	r24, 0x01	; 1
 108:	90 e0       	ldi	r25, 0x00	; 0
 10a:	02 c0       	rjmp	.+4      	; 0x110 <DIO_SetPinDir+0x8e>
 10c:	88 0f       	add	r24, r24
 10e:	99 1f       	adc	r25, r25
 110:	6a 95       	dec	r22
 112:	e2 f7       	brpl	.-8      	; 0x10c <DIO_SetPinDir+0x8a>
 114:	80 95       	com	r24
 116:	82 23       	and	r24, r18
 118:	8a bb       	out	0x1a, r24	; 26
 11a:	08 95       	ret
 11c:	27 b3       	in	r18, 0x17	; 23
 11e:	81 e0       	ldi	r24, 0x01	; 1
 120:	90 e0       	ldi	r25, 0x00	; 0
 122:	02 c0       	rjmp	.+4      	; 0x128 <DIO_SetPinDir+0xa6>
 124:	88 0f       	add	r24, r24
 126:	99 1f       	adc	r25, r25
 128:	6a 95       	dec	r22
 12a:	e2 f7       	brpl	.-8      	; 0x124 <DIO_SetPinDir+0xa2>
 12c:	80 95       	com	r24
 12e:	82 23       	and	r24, r18
 130:	87 bb       	out	0x17, r24	; 23
 132:	08 95       	ret
 134:	24 b3       	in	r18, 0x14	; 20
 136:	81 e0       	ldi	r24, 0x01	; 1
 138:	90 e0       	ldi	r25, 0x00	; 0
 13a:	02 c0       	rjmp	.+4      	; 0x140 <DIO_SetPinDir+0xbe>
 13c:	88 0f       	add	r24, r24
 13e:	99 1f       	adc	r25, r25
 140:	6a 95       	dec	r22
 142:	e2 f7       	brpl	.-8      	; 0x13c <DIO_SetPinDir+0xba>
 144:	80 95       	com	r24
 146:	82 23       	and	r24, r18
 148:	84 bb       	out	0x14, r24	; 20
 14a:	08 95       	ret
 14c:	21 b3       	in	r18, 0x11	; 17
 14e:	81 e0       	ldi	r24, 0x01	; 1
 150:	90 e0       	ldi	r25, 0x00	; 0
 152:	02 c0       	rjmp	.+4      	; 0x158 <DIO_SetPinDir+0xd6>
 154:	88 0f       	add	r24, r24
 156:	99 1f       	adc	r25, r25
 158:	6a 95       	dec	r22
 15a:	e2 f7       	brpl	.-8      	; 0x154 <DIO_SetPinDir+0xd2>
 15c:	80 95       	com	r24
 15e:	82 23       	and	r24, r18
 160:	81 bb       	out	0x11, r24	; 17
 162:	08 95       	ret

00000164 <DIO_SetPinVal>:
		}
}

void DIO_SetPinVal(uint8 Port ,uint8 Pin ,uint8 Val)
{
	switch(Val)
 164:	44 23       	and	r20, r20
 166:	b9 f1       	breq	.+110    	; 0x1d6 <DIO_SetPinVal+0x72>
 168:	41 30       	cpi	r20, 0x01	; 1
 16a:	09 f0       	breq	.+2      	; 0x16e <DIO_SetPinVal+0xa>
 16c:	6b c0       	rjmp	.+214    	; 0x244 <DIO_SetPinVal+0xe0>
	{
		case DIO_PIN_HIGH :
		
		switch(Port)
 16e:	81 30       	cpi	r24, 0x01	; 1
 170:	89 f0       	breq	.+34     	; 0x194 <DIO_SetPinVal+0x30>
 172:	28 f0       	brcs	.+10     	; 0x17e <DIO_SetPinVal+0x1a>
 174:	82 30       	cpi	r24, 0x02	; 2
 176:	c9 f0       	breq	.+50     	; 0x1aa <DIO_SetPinVal+0x46>
 178:	83 30       	cpi	r24, 0x03	; 3
 17a:	11 f1       	breq	.+68     	; 0x1c0 <DIO_SetPinVal+0x5c>
 17c:	08 95       	ret
		{
			case DIO_PORTA :
			SET_BIT(PORTA , Pin);
 17e:	2b b3       	in	r18, 0x1b	; 27
 180:	81 e0       	ldi	r24, 0x01	; 1
 182:	90 e0       	ldi	r25, 0x00	; 0
 184:	02 c0       	rjmp	.+4      	; 0x18a <DIO_SetPinVal+0x26>
 186:	88 0f       	add	r24, r24
 188:	99 1f       	adc	r25, r25
 18a:	6a 95       	dec	r22
 18c:	e2 f7       	brpl	.-8      	; 0x186 <DIO_SetPinVal+0x22>
 18e:	82 2b       	or	r24, r18
 190:	8b bb       	out	0x1b, r24	; 27
			break;
 192:	08 95       	ret
			case DIO_PORTB :
			SET_BIT(PORTB , Pin);
 194:	28 b3       	in	r18, 0x18	; 24
 196:	81 e0       	ldi	r24, 0x01	; 1
 198:	90 e0       	ldi	r25, 0x00	; 0
 19a:	02 c0       	rjmp	.+4      	; 0x1a0 <DIO_SetPinVal+0x3c>
 19c:	88 0f       	add	r24, r24
 19e:	99 1f       	adc	r25, r25
 1a0:	6a 95       	dec	r22
 1a2:	e2 f7       	brpl	.-8      	; 0x19c <DIO_SetPinVal+0x38>
 1a4:	82 2b       	or	r24, r18
 1a6:	88 bb       	out	0x18, r24	; 24
			break; 
 1a8:	08 95       	ret
			case DIO_PORTC :
			SET_BIT(PORTC , Pin);
 1aa:	25 b3       	in	r18, 0x15	; 21
 1ac:	81 e0       	ldi	r24, 0x01	; 1
 1ae:	90 e0       	ldi	r25, 0x00	; 0
 1b0:	02 c0       	rjmp	.+4      	; 0x1b6 <DIO_SetPinVal+0x52>
 1b2:	88 0f       	add	r24, r24
 1b4:	99 1f       	adc	r25, r25
 1b6:	6a 95       	dec	r22
 1b8:	e2 f7       	brpl	.-8      	; 0x1b2 <DIO_SetPinVal+0x4e>
 1ba:	82 2b       	or	r24, r18
 1bc:	85 bb       	out	0x15, r24	; 21
			break;
 1be:	08 95       	ret
			case DIO_PORTD :
			SET_BIT(PORTD , Pin);
 1c0:	22 b3       	in	r18, 0x12	; 18
 1c2:	81 e0       	ldi	r24, 0x01	; 1
 1c4:	90 e0       	ldi	r25, 0x00	; 0
 1c6:	02 c0       	rjmp	.+4      	; 0x1cc <DIO_SetPinVal+0x68>
 1c8:	88 0f       	add	r24, r24
 1ca:	99 1f       	adc	r25, r25
 1cc:	6a 95       	dec	r22
 1ce:	e2 f7       	brpl	.-8      	; 0x1c8 <DIO_SetPinVal+0x64>
 1d0:	82 2b       	or	r24, r18
 1d2:	82 bb       	out	0x12, r24	; 18
			break;
 1d4:	08 95       	ret
		
		break;
		
		case DIO_PIN_LOW :
		
		switch(Port)
 1d6:	81 30       	cpi	r24, 0x01	; 1
 1d8:	91 f0       	breq	.+36     	; 0x1fe <DIO_SetPinVal+0x9a>
 1da:	28 f0       	brcs	.+10     	; 0x1e6 <DIO_SetPinVal+0x82>
 1dc:	82 30       	cpi	r24, 0x02	; 2
 1de:	d9 f0       	breq	.+54     	; 0x216 <DIO_SetPinVal+0xb2>
 1e0:	83 30       	cpi	r24, 0x03	; 3
 1e2:	29 f1       	breq	.+74     	; 0x22e <DIO_SetPinVal+0xca>
 1e4:	08 95       	ret
		{
			case DIO_PORTA :
			CLR_BIT(PORTA , Pin);
 1e6:	2b b3       	in	r18, 0x1b	; 27
 1e8:	81 e0       	ldi	r24, 0x01	; 1
 1ea:	90 e0       	ldi	r25, 0x00	; 0
 1ec:	02 c0       	rjmp	.+4      	; 0x1f2 <DIO_SetPinVal+0x8e>
 1ee:	88 0f       	add	r24, r24
 1f0:	99 1f       	adc	r25, r25
 1f2:	6a 95       	dec	r22
 1f4:	e2 f7       	brpl	.-8      	; 0x1ee <DIO_SetPinVal+0x8a>
 1f6:	80 95       	com	r24
 1f8:	82 23       	and	r24, r18
 1fa:	8b bb       	out	0x1b, r24	; 27
			break;
 1fc:	08 95       	ret
			case DIO_PORTB :
			CLR_BIT(PORTB , Pin);
 1fe:	28 b3       	in	r18, 0x18	; 24
 200:	81 e0       	ldi	r24, 0x01	; 1
 202:	90 e0       	ldi	r25, 0x00	; 0
 204:	02 c0       	rjmp	.+4      	; 0x20a <DIO_SetPinVal+0xa6>
 206:	88 0f       	add	r24, r24
 208:	99 1f       	adc	r25, r25
 20a:	6a 95       	dec	r22
 20c:	e2 f7       	brpl	.-8      	; 0x206 <DIO_SetPinVal+0xa2>
 20e:	80 95       	com	r24
 210:	82 23       	and	r24, r18
 212:	88 bb       	out	0x18, r24	; 24
			break;
 214:	08 95       	ret
			case DIO_PORTC :
			CLR_BIT(PORTC , Pin);
 216:	25 b3       	in	r18, 0x15	; 21
 218:	81 e0       	ldi	r24, 0x01	; 1
 21a:	90 e0       	ldi	r25, 0x00	; 0
 21c:	02 c0       	rjmp	.+4      	; 0x222 <DIO_SetPinVal+0xbe>
 21e:	88 0f       	add	r24, r24
 220:	99 1f       	adc	r25, r25
 222:	6a 95       	dec	r22
 224:	e2 f7       	brpl	.-8      	; 0x21e <DIO_SetPinVal+0xba>
 226:	80 95       	com	r24
 228:	82 23       	and	r24, r18
 22a:	85 bb       	out	0x15, r24	; 21
			break;
 22c:	08 95       	ret
			case DIO_PORTD :
			CLR_BIT(PORTD , Pin);
 22e:	22 b3       	in	r18, 0x12	; 18
 230:	81 e0       	ldi	r24, 0x01	; 1
 232:	90 e0       	ldi	r25, 0x00	; 0
 234:	02 c0       	rjmp	.+4      	; 0x23a <DIO_SetPinVal+0xd6>
 236:	88 0f       	add	r24, r24
 238:	99 1f       	adc	r25, r25
 23a:	6a 95       	dec	r22
 23c:	e2 f7       	brpl	.-8      	; 0x236 <DIO_SetPinVal+0xd2>
 23e:	80 95       	com	r24
 240:	82 23       	and	r24, r18
 242:	82 bb       	out	0x12, r24	; 18
 244:	08 95       	ret

00000246 <LCD_WriteCommand>:
	
	#endif
}

void LCD_WriteCommand(uint8 cmd)
{
 246:	cf 93       	push	r28
 248:	c8 2f       	mov	r28, r24
	DIO_SetPinVal(LCD_4BIT_CMD_PORT ,LCD_RS_PIN ,DIO_PIN_LOW);
 24a:	40 e0       	ldi	r20, 0x00	; 0
 24c:	61 e0       	ldi	r22, 0x01	; 1
 24e:	81 e0       	ldi	r24, 0x01	; 1
 250:	0e 94 b2 00 	call	0x164	; 0x164 <DIO_SetPinVal>
	DIO_SetPinVal(LCD_4BIT_CMD_PORT ,LCD_RW_PIN ,DIO_PIN_LOW);
 254:	40 e0       	ldi	r20, 0x00	; 0
 256:	62 e0       	ldi	r22, 0x02	; 2
 258:	81 e0       	ldi	r24, 0x01	; 1
 25a:	0e 94 b2 00 	call	0x164	; 0x164 <DIO_SetPinVal>
	DIO_SetPinVal(LCD_4BIT_CMD_PORT ,LCD_E_PIN ,DIO_PIN_LOW);
 25e:	40 e0       	ldi	r20, 0x00	; 0
 260:	63 e0       	ldi	r22, 0x03	; 3
 262:	81 e0       	ldi	r24, 0x01	; 1
 264:	0e 94 b2 00 	call	0x164	; 0x164 <DIO_SetPinVal>
	
	PORTA = (cmd & 0xF0) | (PORTA & 0X0F);
 268:	8b b3       	in	r24, 0x1b	; 27
 26a:	9c 2f       	mov	r25, r28
 26c:	90 7f       	andi	r25, 0xF0	; 240
 26e:	8f 70       	andi	r24, 0x0F	; 15
 270:	89 2b       	or	r24, r25
 272:	8b bb       	out	0x1b, r24	; 27
	
	DIO_SetPinVal(LCD_4BIT_CMD_PORT ,LCD_E_PIN ,DIO_PIN_HIGH);
 274:	41 e0       	ldi	r20, 0x01	; 1
 276:	63 e0       	ldi	r22, 0x03	; 3
 278:	81 e0       	ldi	r24, 0x01	; 1
 27a:	0e 94 b2 00 	call	0x164	; 0x164 <DIO_SetPinVal>
	#else
		//round up by default
		__ticks_dc = (uint32_t)(ceil(fabs(__tmp)));
	#endif

	__builtin_avr_delay_cycles(__ticks_dc);
 27e:	8f e9       	ldi	r24, 0x9F	; 159
 280:	9f e0       	ldi	r25, 0x0F	; 15
 282:	01 97       	sbiw	r24, 0x01	; 1
 284:	f1 f7       	brne	.-4      	; 0x282 <LCD_WriteCommand+0x3c>
 286:	00 c0       	rjmp	.+0      	; 0x288 <LCD_WriteCommand+0x42>
 288:	00 00       	nop
	_delay_ms(1);
	DIO_SetPinVal(LCD_4BIT_CMD_PORT ,LCD_E_PIN ,DIO_PIN_LOW);
 28a:	40 e0       	ldi	r20, 0x00	; 0
 28c:	63 e0       	ldi	r22, 0x03	; 3
 28e:	81 e0       	ldi	r24, 0x01	; 1
 290:	0e 94 b2 00 	call	0x164	; 0x164 <DIO_SetPinVal>
	
	PORTA = (cmd << 4) | (PORTA & 0X0F);
 294:	2b b3       	in	r18, 0x1b	; 27
 296:	30 e1       	ldi	r19, 0x10	; 16
 298:	c3 9f       	mul	r28, r19
 29a:	c0 01       	movw	r24, r0
 29c:	11 24       	eor	r1, r1
 29e:	92 2f       	mov	r25, r18
 2a0:	9f 70       	andi	r25, 0x0F	; 15
 2a2:	89 2b       	or	r24, r25
 2a4:	8b bb       	out	0x1b, r24	; 27
	
	DIO_SetPinVal(LCD_4BIT_CMD_PORT ,LCD_E_PIN ,DIO_PIN_HIGH);
 2a6:	41 e0       	ldi	r20, 0x01	; 1
 2a8:	63 e0       	ldi	r22, 0x03	; 3
 2aa:	81 e0       	ldi	r24, 0x01	; 1
 2ac:	0e 94 b2 00 	call	0x164	; 0x164 <DIO_SetPinVal>
 2b0:	8f e9       	ldi	r24, 0x9F	; 159
 2b2:	9f e0       	ldi	r25, 0x0F	; 15
 2b4:	01 97       	sbiw	r24, 0x01	; 1
 2b6:	f1 f7       	brne	.-4      	; 0x2b4 <LCD_WriteCommand+0x6e>
 2b8:	00 c0       	rjmp	.+0      	; 0x2ba <LCD_WriteCommand+0x74>
 2ba:	00 00       	nop
	_delay_ms(1);
	DIO_SetPinVal(LCD_4BIT_CMD_PORT ,LCD_E_PIN ,DIO_PIN_LOW);
 2bc:	40 e0       	ldi	r20, 0x00	; 0
 2be:	63 e0       	ldi	r22, 0x03	; 3
 2c0:	81 e0       	ldi	r24, 0x01	; 1
 2c2:	0e 94 b2 00 	call	0x164	; 0x164 <DIO_SetPinVal>
 2c6:	8f e1       	ldi	r24, 0x1F	; 31
 2c8:	9e e4       	ldi	r25, 0x4E	; 78
 2ca:	01 97       	sbiw	r24, 0x01	; 1
 2cc:	f1 f7       	brne	.-4      	; 0x2ca <LCD_WriteCommand+0x84>
 2ce:	00 c0       	rjmp	.+0      	; 0x2d0 <LCD_WriteCommand+0x8a>
 2d0:	00 00       	nop
	
	_delay_ms(5);
}
 2d2:	cf 91       	pop	r28
 2d4:	08 95       	ret

000002d6 <LCD_Init>:
	_delay_ms(20);
	
	
	#elif   LCD_MODE ==  4
	
	  DIO_SetPinDir(LCD_4BIT_CMD_PORT ,LCD_RS_PIN ,DIO_PIN_OUTPUT);
 2d6:	41 e0       	ldi	r20, 0x01	; 1
 2d8:	61 e0       	ldi	r22, 0x01	; 1
 2da:	81 e0       	ldi	r24, 0x01	; 1
 2dc:	0e 94 41 00 	call	0x82	; 0x82 <DIO_SetPinDir>
	  DIO_SetPinDir(LCD_4BIT_CMD_PORT ,LCD_RW_PIN ,DIO_PIN_OUTPUT);
 2e0:	41 e0       	ldi	r20, 0x01	; 1
 2e2:	62 e0       	ldi	r22, 0x02	; 2
 2e4:	81 e0       	ldi	r24, 0x01	; 1
 2e6:	0e 94 41 00 	call	0x82	; 0x82 <DIO_SetPinDir>
	  DIO_SetPinDir(LCD_4BIT_CMD_PORT ,LCD_E_PIN ,DIO_PIN_OUTPUT);
 2ea:	41 e0       	ldi	r20, 0x01	; 1
 2ec:	63 e0       	ldi	r22, 0x03	; 3
 2ee:	81 e0       	ldi	r24, 0x01	; 1
 2f0:	0e 94 41 00 	call	0x82	; 0x82 <DIO_SetPinDir>
	  
	  DIO_SetPinDir(LCD_4BIT_DATA_PORT ,LCD_D4 ,DIO_PIN_OUTPUT);  
 2f4:	41 e0       	ldi	r20, 0x01	; 1
 2f6:	64 e0       	ldi	r22, 0x04	; 4
 2f8:	80 e0       	ldi	r24, 0x00	; 0
 2fa:	0e 94 41 00 	call	0x82	; 0x82 <DIO_SetPinDir>
      DIO_SetPinDir(LCD_4BIT_DATA_PORT ,LCD_D5 ,DIO_PIN_OUTPUT);
 2fe:	41 e0       	ldi	r20, 0x01	; 1
 300:	65 e0       	ldi	r22, 0x05	; 5
 302:	80 e0       	ldi	r24, 0x00	; 0
 304:	0e 94 41 00 	call	0x82	; 0x82 <DIO_SetPinDir>
      DIO_SetPinDir(LCD_4BIT_DATA_PORT ,LCD_D6 ,DIO_PIN_OUTPUT);
 308:	41 e0       	ldi	r20, 0x01	; 1
 30a:	66 e0       	ldi	r22, 0x06	; 6
 30c:	80 e0       	ldi	r24, 0x00	; 0
 30e:	0e 94 41 00 	call	0x82	; 0x82 <DIO_SetPinDir>
	  DIO_SetPinDir(LCD_4BIT_DATA_PORT ,LCD_D7 ,DIO_PIN_OUTPUT);
 312:	41 e0       	ldi	r20, 0x01	; 1
 314:	67 e0       	ldi	r22, 0x07	; 7
 316:	80 e0       	ldi	r24, 0x00	; 0
 318:	0e 94 41 00 	call	0x82	; 0x82 <DIO_SetPinDir>
 31c:	2f ef       	ldi	r18, 0xFF	; 255
 31e:	81 ee       	ldi	r24, 0xE1	; 225
 320:	94 e0       	ldi	r25, 0x04	; 4
 322:	21 50       	subi	r18, 0x01	; 1
 324:	80 40       	sbci	r24, 0x00	; 0
 326:	90 40       	sbci	r25, 0x00	; 0
 328:	e1 f7       	brne	.-8      	; 0x322 <LCD_Init+0x4c>
 32a:	00 c0       	rjmp	.+0      	; 0x32c <LCD_Init+0x56>
 32c:	00 00       	nop
	  
	  _delay_ms(100);
	  
	  LCD_WriteCommand(0x33);
 32e:	83 e3       	ldi	r24, 0x33	; 51
 330:	0e 94 23 01 	call	0x246	; 0x246 <LCD_WriteCommand>
	  LCD_WriteCommand(0x32);
 334:	82 e3       	ldi	r24, 0x32	; 50
 336:	0e 94 23 01 	call	0x246	; 0x246 <LCD_WriteCommand>
	  LCD_WriteCommand(0x28);
 33a:	88 e2       	ldi	r24, 0x28	; 40
 33c:	0e 94 23 01 	call	0x246	; 0x246 <LCD_WriteCommand>
	  LCD_WriteCommand(0x0C);
 340:	8c e0       	ldi	r24, 0x0C	; 12
 342:	0e 94 23 01 	call	0x246	; 0x246 <LCD_WriteCommand>
      LCD_WriteCommand(0x01);
 346:	81 e0       	ldi	r24, 0x01	; 1
 348:	0e 94 23 01 	call	0x246	; 0x246 <LCD_WriteCommand>
	  LCD_WriteCommand(0x06);
 34c:	86 e0       	ldi	r24, 0x06	; 6
 34e:	0e 94 23 01 	call	0x246	; 0x246 <LCD_WriteCommand>
	  LCD_WriteCommand(0x02);
 352:	82 e0       	ldi	r24, 0x02	; 2
 354:	0e 94 23 01 	call	0x246	; 0x246 <LCD_WriteCommand>
 358:	08 95       	ret

0000035a <LCD_WriteChar>:
	
	_delay_ms(5);
}

void LCD_WriteChar(uint8 chr)
{
 35a:	cf 93       	push	r28
 35c:	c8 2f       	mov	r28, r24
	DIO_SetPinVal(LCD_4BIT_CMD_PORT ,LCD_RS_PIN ,DIO_PIN_HIGH);
 35e:	41 e0       	ldi	r20, 0x01	; 1
 360:	61 e0       	ldi	r22, 0x01	; 1
 362:	81 e0       	ldi	r24, 0x01	; 1
 364:	0e 94 b2 00 	call	0x164	; 0x164 <DIO_SetPinVal>
	DIO_SetPinVal(LCD_4BIT_CMD_PORT ,LCD_RW_PIN ,DIO_PIN_LOW);
 368:	40 e0       	ldi	r20, 0x00	; 0
 36a:	62 e0       	ldi	r22, 0x02	; 2
 36c:	81 e0       	ldi	r24, 0x01	; 1
 36e:	0e 94 b2 00 	call	0x164	; 0x164 <DIO_SetPinVal>
	DIO_SetPinVal(LCD_4BIT_CMD_PORT ,LCD_E_PIN ,DIO_PIN_LOW);
 372:	40 e0       	ldi	r20, 0x00	; 0
 374:	63 e0       	ldi	r22, 0x03	; 3
 376:	81 e0       	ldi	r24, 0x01	; 1
 378:	0e 94 b2 00 	call	0x164	; 0x164 <DIO_SetPinVal>
	
	PORTA = (chr & 0xF0) | (PORTA & 0X0F);
 37c:	8b b3       	in	r24, 0x1b	; 27
 37e:	9c 2f       	mov	r25, r28
 380:	90 7f       	andi	r25, 0xF0	; 240
 382:	8f 70       	andi	r24, 0x0F	; 15
 384:	89 2b       	or	r24, r25
 386:	8b bb       	out	0x1b, r24	; 27
	
	DIO_SetPinVal(LCD_4BIT_CMD_PORT ,LCD_E_PIN ,DIO_PIN_HIGH);
 388:	41 e0       	ldi	r20, 0x01	; 1
 38a:	63 e0       	ldi	r22, 0x03	; 3
 38c:	81 e0       	ldi	r24, 0x01	; 1
 38e:	0e 94 b2 00 	call	0x164	; 0x164 <DIO_SetPinVal>
 392:	8f e9       	ldi	r24, 0x9F	; 159
 394:	9f e0       	ldi	r25, 0x0F	; 15
 396:	01 97       	sbiw	r24, 0x01	; 1
 398:	f1 f7       	brne	.-4      	; 0x396 <LCD_WriteChar+0x3c>
 39a:	00 c0       	rjmp	.+0      	; 0x39c <LCD_WriteChar+0x42>
 39c:	00 00       	nop
	_delay_ms(1);
	DIO_SetPinVal(LCD_4BIT_CMD_PORT ,LCD_E_PIN ,DIO_PIN_LOW);
 39e:	40 e0       	ldi	r20, 0x00	; 0
 3a0:	63 e0       	ldi	r22, 0x03	; 3
 3a2:	81 e0       	ldi	r24, 0x01	; 1
 3a4:	0e 94 b2 00 	call	0x164	; 0x164 <DIO_SetPinVal>
		
	PORTA = (chr << 4) | (PORTA & 0X0F);
 3a8:	2b b3       	in	r18, 0x1b	; 27
 3aa:	30 e1       	ldi	r19, 0x10	; 16
 3ac:	c3 9f       	mul	r28, r19
 3ae:	c0 01       	movw	r24, r0
 3b0:	11 24       	eor	r1, r1
 3b2:	92 2f       	mov	r25, r18
 3b4:	9f 70       	andi	r25, 0x0F	; 15
 3b6:	89 2b       	or	r24, r25
 3b8:	8b bb       	out	0x1b, r24	; 27
		
	DIO_SetPinVal(LCD_4BIT_CMD_PORT ,LCD_E_PIN ,DIO_PIN_HIGH);
 3ba:	41 e0       	ldi	r20, 0x01	; 1
 3bc:	63 e0       	ldi	r22, 0x03	; 3
 3be:	81 e0       	ldi	r24, 0x01	; 1
 3c0:	0e 94 b2 00 	call	0x164	; 0x164 <DIO_SetPinVal>
 3c4:	8f e9       	ldi	r24, 0x9F	; 159
 3c6:	9f e0       	ldi	r25, 0x0F	; 15
 3c8:	01 97       	sbiw	r24, 0x01	; 1
 3ca:	f1 f7       	brne	.-4      	; 0x3c8 <LCD_WriteChar+0x6e>
 3cc:	00 c0       	rjmp	.+0      	; 0x3ce <LCD_WriteChar+0x74>
 3ce:	00 00       	nop
	_delay_ms(1);
	DIO_SetPinVal(LCD_4BIT_CMD_PORT ,LCD_E_PIN ,DIO_PIN_LOW);
 3d0:	40 e0       	ldi	r20, 0x00	; 0
 3d2:	63 e0       	ldi	r22, 0x03	; 3
 3d4:	81 e0       	ldi	r24, 0x01	; 1
 3d6:	0e 94 b2 00 	call	0x164	; 0x164 <DIO_SetPinVal>
 3da:	8f e1       	ldi	r24, 0x1F	; 31
 3dc:	9e e4       	ldi	r25, 0x4E	; 78
 3de:	01 97       	sbiw	r24, 0x01	; 1
 3e0:	f1 f7       	brne	.-4      	; 0x3de <LCD_WriteChar+0x84>
 3e2:	00 c0       	rjmp	.+0      	; 0x3e4 <LCD_WriteChar+0x8a>
 3e4:	00 00       	nop
			
	_delay_ms(5);
}
 3e6:	cf 91       	pop	r28
 3e8:	08 95       	ret

000003ea <LCD_WriteString>:

void LCD_WriteString(uint8* str)
{
 3ea:	0f 93       	push	r16
 3ec:	1f 93       	push	r17
 3ee:	cf 93       	push	r28
 3f0:	fc 01       	movw	r30, r24
	uint8 i = 0;
	
	while(str[i] != '\0')
 3f2:	80 81       	ld	r24, Z
 3f4:	88 23       	and	r24, r24
 3f6:	59 f0       	breq	.+22     	; 0x40e <__LOCK_REGION_LENGTH__+0xe>
 3f8:	8f 01       	movw	r16, r30
 3fa:	c0 e0       	ldi	r28, 0x00	; 0
	{
		LCD_WriteChar(str[i]);
 3fc:	0e 94 ad 01 	call	0x35a	; 0x35a <LCD_WriteChar>
		i++;
 400:	cf 5f       	subi	r28, 0xFF	; 255

void LCD_WriteString(uint8* str)
{
	uint8 i = 0;
	
	while(str[i] != '\0')
 402:	f8 01       	movw	r30, r16
 404:	ec 0f       	add	r30, r28
 406:	f1 1d       	adc	r31, r1
 408:	80 81       	ld	r24, Z
 40a:	81 11       	cpse	r24, r1
 40c:	f7 cf       	rjmp	.-18     	; 0x3fc <LCD_WriteString+0x12>
	{
		LCD_WriteChar(str[i]);
		i++;
	}
}
 40e:	cf 91       	pop	r28
 410:	1f 91       	pop	r17
 412:	0f 91       	pop	r16
 414:	08 95       	ret

00000416 <main>:


int main(void)
{
   
   LCD_Init();
 416:	0e 94 6b 01 	call	0x2d6	; 0x2d6 <LCD_Init>
   LCD_WriteString("FLORO");
 41a:	80 e6       	ldi	r24, 0x60	; 96
 41c:	90 e0       	ldi	r25, 0x00	; 0
 41e:	0e 94 f5 01 	call	0x3ea	; 0x3ea <LCD_WriteString>
   LCD_WriteString("3AYEZ");
 422:	86 e6       	ldi	r24, 0x66	; 102
 424:	90 e0       	ldi	r25, 0x00	; 0
 426:	0e 94 f5 01 	call	0x3ea	; 0x3ea <LCD_WriteString>
   LCD_WriteString("YTGAWEZ");
 42a:	8c e6       	ldi	r24, 0x6C	; 108
 42c:	90 e0       	ldi	r25, 0x00	; 0
 42e:	0e 94 f5 01 	call	0x3ea	; 0x3ea <LCD_WriteString>
 432:	ff cf       	rjmp	.-2      	; 0x432 <main+0x1c>

00000434 <_exit>:
 434:	f8 94       	cli

00000436 <__stop_program>:
 436:	ff cf       	rjmp	.-2      	; 0x436 <__stop_program>
