
ADC_Driver03.elf:     file format elf32-avr

Sections:
Idx Name          Size      VMA       LMA       File off  Algn
  0 .text         00000594  00000000  00000000  00000054  2**1
                  CONTENTS, ALLOC, LOAD, READONLY, CODE
  1 .data         00000000  00800060  00800060  000005e8  2**0
                  CONTENTS, ALLOC, LOAD, DATA
  2 .comment      00000030  00000000  00000000  000005e8  2**0
                  CONTENTS, READONLY
  3 .note.gnu.avr.deviceinfo 0000003c  00000000  00000000  00000618  2**2
                  CONTENTS, READONLY
  4 .debug_info   000004e6  00000000  00000000  00000654  2**0
                  CONTENTS, READONLY, DEBUGGING
  5 .debug_abbrev 000004a3  00000000  00000000  00000b3a  2**0
                  CONTENTS, READONLY, DEBUGGING
  6 .debug_line   00000115  00000000  00000000  00000fdd  2**0
                  CONTENTS, READONLY, DEBUGGING
  7 .debug_str    00000196  00000000  00000000  000010f2  2**0
                  CONTENTS, READONLY, DEBUGGING

Disassembly of section .text:

00000000 <__vectors>:
   0:	0c 94 2a 00 	jmp	0x54	; 0x54 <__ctors_end>
   4:	0c 94 34 00 	jmp	0x68	; 0x68 <__bad_interrupt>
   8:	0c 94 34 00 	jmp	0x68	; 0x68 <__bad_interrupt>
   c:	0c 94 34 00 	jmp	0x68	; 0x68 <__bad_interrupt>
  10:	0c 94 34 00 	jmp	0x68	; 0x68 <__bad_interrupt>
  14:	0c 94 34 00 	jmp	0x68	; 0x68 <__bad_interrupt>
  18:	0c 94 34 00 	jmp	0x68	; 0x68 <__bad_interrupt>
  1c:	0c 94 34 00 	jmp	0x68	; 0x68 <__bad_interrupt>
  20:	0c 94 34 00 	jmp	0x68	; 0x68 <__bad_interrupt>
  24:	0c 94 34 00 	jmp	0x68	; 0x68 <__bad_interrupt>
  28:	0c 94 34 00 	jmp	0x68	; 0x68 <__bad_interrupt>
  2c:	0c 94 34 00 	jmp	0x68	; 0x68 <__bad_interrupt>
  30:	0c 94 34 00 	jmp	0x68	; 0x68 <__bad_interrupt>
  34:	0c 94 34 00 	jmp	0x68	; 0x68 <__bad_interrupt>
  38:	0c 94 34 00 	jmp	0x68	; 0x68 <__bad_interrupt>
  3c:	0c 94 34 00 	jmp	0x68	; 0x68 <__bad_interrupt>
  40:	0c 94 34 00 	jmp	0x68	; 0x68 <__bad_interrupt>
  44:	0c 94 34 00 	jmp	0x68	; 0x68 <__bad_interrupt>
  48:	0c 94 34 00 	jmp	0x68	; 0x68 <__bad_interrupt>
  4c:	0c 94 34 00 	jmp	0x68	; 0x68 <__bad_interrupt>
  50:	0c 94 34 00 	jmp	0x68	; 0x68 <__bad_interrupt>

00000054 <__ctors_end>:
  54:	11 24       	eor	r1, r1
  56:	1f be       	out	0x3f, r1	; 63
  58:	cf e5       	ldi	r28, 0x5F	; 95
  5a:	d8 e0       	ldi	r29, 0x08	; 8
  5c:	de bf       	out	0x3e, r29	; 62
  5e:	cd bf       	out	0x3d, r28	; 61
  60:	0e 94 4b 02 	call	0x496	; 0x496 <main>
  64:	0c 94 c8 02 	jmp	0x590	; 0x590 <_exit>

00000068 <__bad_interrupt>:
  68:	0c 94 00 00 	jmp	0	; 0x0 <__vectors>

0000006c <ADC_Init>:
  6c:	3e 9a       	sbi	0x07, 6	; 7
  6e:	3f 98       	cbi	0x07, 7	; 7
  70:	3d 98       	cbi	0x07, 5	; 7
  72:	38 9a       	sbi	0x07, 0	; 7
  74:	39 98       	cbi	0x07, 1	; 7
  76:	3a 98       	cbi	0x07, 2	; 7
  78:	3b 98       	cbi	0x07, 3	; 7
  7a:	3c 98       	cbi	0x07, 4	; 7
  7c:	35 9a       	sbi	0x06, 5	; 6
  7e:	30 9a       	sbi	0x06, 0	; 6
  80:	31 9a       	sbi	0x06, 1	; 6
  82:	32 9a       	sbi	0x06, 2	; 6
  84:	33 98       	cbi	0x06, 3	; 6
  86:	37 9a       	sbi	0x06, 7	; 6
  88:	08 95       	ret

0000008a <ADC_Read>:
  8a:	36 9a       	sbi	0x06, 6	; 6
  8c:	34 9b       	sbis	0x06, 4	; 6
  8e:	fe cf       	rjmp	.-4      	; 0x8c <ADC_Read+0x2>
  90:	80 e0       	ldi	r24, 0x00	; 0
  92:	90 e0       	ldi	r25, 0x00	; 0
  94:	08 95       	ret

00000096 <DIO_SetPinDir>:
  96:	44 23       	and	r20, r20
  98:	79 f1       	breq	.+94     	; 0xf8 <DIO_SetPinDir+0x62>
  9a:	41 30       	cpi	r20, 0x01	; 1
  9c:	09 f0       	breq	.+2      	; 0xa0 <DIO_SetPinDir+0xa>
  9e:	5f c0       	rjmp	.+190    	; 0x15e <DIO_SetPinDir+0xc8>
  a0:	81 30       	cpi	r24, 0x01	; 1
  a2:	79 f0       	breq	.+30     	; 0xc2 <DIO_SetPinDir+0x2c>
  a4:	28 f0       	brcs	.+10     	; 0xb0 <DIO_SetPinDir+0x1a>
  a6:	82 30       	cpi	r24, 0x02	; 2
  a8:	a9 f0       	breq	.+42     	; 0xd4 <DIO_SetPinDir+0x3e>
  aa:	83 30       	cpi	r24, 0x03	; 3
  ac:	e1 f0       	breq	.+56     	; 0xe6 <DIO_SetPinDir+0x50>
  ae:	08 95       	ret
  b0:	2a b3       	in	r18, 0x1a	; 26
  b2:	81 e0       	ldi	r24, 0x01	; 1
  b4:	90 e0       	ldi	r25, 0x00	; 0
  b6:	01 c0       	rjmp	.+2      	; 0xba <DIO_SetPinDir+0x24>
  b8:	88 0f       	add	r24, r24
  ba:	6a 95       	dec	r22
  bc:	ea f7       	brpl	.-6      	; 0xb8 <DIO_SetPinDir+0x22>
  be:	82 2b       	or	r24, r18
  c0:	2c c0       	rjmp	.+88     	; 0x11a <DIO_SetPinDir+0x84>
  c2:	27 b3       	in	r18, 0x17	; 23
  c4:	81 e0       	ldi	r24, 0x01	; 1
  c6:	90 e0       	ldi	r25, 0x00	; 0
  c8:	01 c0       	rjmp	.+2      	; 0xcc <DIO_SetPinDir+0x36>
  ca:	88 0f       	add	r24, r24
  cc:	6a 95       	dec	r22
  ce:	ea f7       	brpl	.-6      	; 0xca <DIO_SetPinDir+0x34>
  d0:	82 2b       	or	r24, r18
  d2:	2e c0       	rjmp	.+92     	; 0x130 <DIO_SetPinDir+0x9a>
  d4:	24 b3       	in	r18, 0x14	; 20
  d6:	81 e0       	ldi	r24, 0x01	; 1
  d8:	90 e0       	ldi	r25, 0x00	; 0
  da:	01 c0       	rjmp	.+2      	; 0xde <DIO_SetPinDir+0x48>
  dc:	88 0f       	add	r24, r24
  de:	6a 95       	dec	r22
  e0:	ea f7       	brpl	.-6      	; 0xdc <DIO_SetPinDir+0x46>
  e2:	82 2b       	or	r24, r18
  e4:	30 c0       	rjmp	.+96     	; 0x146 <DIO_SetPinDir+0xb0>
  e6:	21 b3       	in	r18, 0x11	; 17
  e8:	81 e0       	ldi	r24, 0x01	; 1
  ea:	90 e0       	ldi	r25, 0x00	; 0
  ec:	01 c0       	rjmp	.+2      	; 0xf0 <DIO_SetPinDir+0x5a>
  ee:	88 0f       	add	r24, r24
  f0:	6a 95       	dec	r22
  f2:	ea f7       	brpl	.-6      	; 0xee <DIO_SetPinDir+0x58>
  f4:	82 2b       	or	r24, r18
  f6:	32 c0       	rjmp	.+100    	; 0x15c <DIO_SetPinDir+0xc6>
  f8:	81 30       	cpi	r24, 0x01	; 1
  fa:	89 f0       	breq	.+34     	; 0x11e <DIO_SetPinDir+0x88>
  fc:	28 f0       	brcs	.+10     	; 0x108 <DIO_SetPinDir+0x72>
  fe:	82 30       	cpi	r24, 0x02	; 2
 100:	c9 f0       	breq	.+50     	; 0x134 <DIO_SetPinDir+0x9e>
 102:	83 30       	cpi	r24, 0x03	; 3
 104:	11 f1       	breq	.+68     	; 0x14a <DIO_SetPinDir+0xb4>
 106:	08 95       	ret
 108:	2a b3       	in	r18, 0x1a	; 26
 10a:	81 e0       	ldi	r24, 0x01	; 1
 10c:	90 e0       	ldi	r25, 0x00	; 0
 10e:	01 c0       	rjmp	.+2      	; 0x112 <DIO_SetPinDir+0x7c>
 110:	88 0f       	add	r24, r24
 112:	6a 95       	dec	r22
 114:	ea f7       	brpl	.-6      	; 0x110 <DIO_SetPinDir+0x7a>
 116:	80 95       	com	r24
 118:	82 23       	and	r24, r18
 11a:	8a bb       	out	0x1a, r24	; 26
 11c:	08 95       	ret
 11e:	27 b3       	in	r18, 0x17	; 23
 120:	81 e0       	ldi	r24, 0x01	; 1
 122:	90 e0       	ldi	r25, 0x00	; 0
 124:	01 c0       	rjmp	.+2      	; 0x128 <DIO_SetPinDir+0x92>
 126:	88 0f       	add	r24, r24
 128:	6a 95       	dec	r22
 12a:	ea f7       	brpl	.-6      	; 0x126 <DIO_SetPinDir+0x90>
 12c:	80 95       	com	r24
 12e:	82 23       	and	r24, r18
 130:	87 bb       	out	0x17, r24	; 23
 132:	08 95       	ret
 134:	24 b3       	in	r18, 0x14	; 20
 136:	81 e0       	ldi	r24, 0x01	; 1
 138:	90 e0       	ldi	r25, 0x00	; 0
 13a:	01 c0       	rjmp	.+2      	; 0x13e <DIO_SetPinDir+0xa8>
 13c:	88 0f       	add	r24, r24
 13e:	6a 95       	dec	r22
 140:	ea f7       	brpl	.-6      	; 0x13c <DIO_SetPinDir+0xa6>
 142:	80 95       	com	r24
 144:	82 23       	and	r24, r18
 146:	84 bb       	out	0x14, r24	; 20
 148:	08 95       	ret
 14a:	21 b3       	in	r18, 0x11	; 17
 14c:	81 e0       	ldi	r24, 0x01	; 1
 14e:	90 e0       	ldi	r25, 0x00	; 0
 150:	01 c0       	rjmp	.+2      	; 0x154 <DIO_SetPinDir+0xbe>
 152:	88 0f       	add	r24, r24
 154:	6a 95       	dec	r22
 156:	ea f7       	brpl	.-6      	; 0x152 <DIO_SetPinDir+0xbc>
 158:	80 95       	com	r24
 15a:	82 23       	and	r24, r18
 15c:	81 bb       	out	0x11, r24	; 17
 15e:	08 95       	ret

00000160 <DIO_SetPinVal>:
 160:	44 23       	and	r20, r20
 162:	79 f1       	breq	.+94     	; 0x1c2 <DIO_SetPinVal+0x62>
 164:	41 30       	cpi	r20, 0x01	; 1
 166:	09 f0       	breq	.+2      	; 0x16a <DIO_SetPinVal+0xa>
 168:	5f c0       	rjmp	.+190    	; 0x228 <DIO_SetPinVal+0xc8>
 16a:	81 30       	cpi	r24, 0x01	; 1
 16c:	79 f0       	breq	.+30     	; 0x18c <DIO_SetPinVal+0x2c>
 16e:	28 f0       	brcs	.+10     	; 0x17a <DIO_SetPinVal+0x1a>
 170:	82 30       	cpi	r24, 0x02	; 2
 172:	a9 f0       	breq	.+42     	; 0x19e <DIO_SetPinVal+0x3e>
 174:	83 30       	cpi	r24, 0x03	; 3
 176:	e1 f0       	breq	.+56     	; 0x1b0 <DIO_SetPinVal+0x50>
 178:	08 95       	ret
 17a:	2b b3       	in	r18, 0x1b	; 27
 17c:	81 e0       	ldi	r24, 0x01	; 1
 17e:	90 e0       	ldi	r25, 0x00	; 0
 180:	01 c0       	rjmp	.+2      	; 0x184 <DIO_SetPinVal+0x24>
 182:	88 0f       	add	r24, r24
 184:	6a 95       	dec	r22
 186:	ea f7       	brpl	.-6      	; 0x182 <DIO_SetPinVal+0x22>
 188:	82 2b       	or	r24, r18
 18a:	2c c0       	rjmp	.+88     	; 0x1e4 <DIO_SetPinVal+0x84>
 18c:	28 b3       	in	r18, 0x18	; 24
 18e:	81 e0       	ldi	r24, 0x01	; 1
 190:	90 e0       	ldi	r25, 0x00	; 0
 192:	01 c0       	rjmp	.+2      	; 0x196 <DIO_SetPinVal+0x36>
 194:	88 0f       	add	r24, r24
 196:	6a 95       	dec	r22
 198:	ea f7       	brpl	.-6      	; 0x194 <DIO_SetPinVal+0x34>
 19a:	82 2b       	or	r24, r18
 19c:	2e c0       	rjmp	.+92     	; 0x1fa <DIO_SetPinVal+0x9a>
 19e:	25 b3       	in	r18, 0x15	; 21
 1a0:	81 e0       	ldi	r24, 0x01	; 1
 1a2:	90 e0       	ldi	r25, 0x00	; 0
 1a4:	01 c0       	rjmp	.+2      	; 0x1a8 <DIO_SetPinVal+0x48>
 1a6:	88 0f       	add	r24, r24
 1a8:	6a 95       	dec	r22
 1aa:	ea f7       	brpl	.-6      	; 0x1a6 <DIO_SetPinVal+0x46>
 1ac:	82 2b       	or	r24, r18
 1ae:	30 c0       	rjmp	.+96     	; 0x210 <DIO_SetPinVal+0xb0>
 1b0:	22 b3       	in	r18, 0x12	; 18
 1b2:	81 e0       	ldi	r24, 0x01	; 1
 1b4:	90 e0       	ldi	r25, 0x00	; 0
 1b6:	01 c0       	rjmp	.+2      	; 0x1ba <DIO_SetPinVal+0x5a>
 1b8:	88 0f       	add	r24, r24
 1ba:	6a 95       	dec	r22
 1bc:	ea f7       	brpl	.-6      	; 0x1b8 <DIO_SetPinVal+0x58>
 1be:	82 2b       	or	r24, r18
 1c0:	32 c0       	rjmp	.+100    	; 0x226 <DIO_SetPinVal+0xc6>
 1c2:	81 30       	cpi	r24, 0x01	; 1
 1c4:	89 f0       	breq	.+34     	; 0x1e8 <DIO_SetPinVal+0x88>
 1c6:	28 f0       	brcs	.+10     	; 0x1d2 <DIO_SetPinVal+0x72>
 1c8:	82 30       	cpi	r24, 0x02	; 2
 1ca:	c9 f0       	breq	.+50     	; 0x1fe <DIO_SetPinVal+0x9e>
 1cc:	83 30       	cpi	r24, 0x03	; 3
 1ce:	11 f1       	breq	.+68     	; 0x214 <DIO_SetPinVal+0xb4>
 1d0:	08 95       	ret
 1d2:	2b b3       	in	r18, 0x1b	; 27
 1d4:	81 e0       	ldi	r24, 0x01	; 1
 1d6:	90 e0       	ldi	r25, 0x00	; 0
 1d8:	01 c0       	rjmp	.+2      	; 0x1dc <DIO_SetPinVal+0x7c>
 1da:	88 0f       	add	r24, r24
 1dc:	6a 95       	dec	r22
 1de:	ea f7       	brpl	.-6      	; 0x1da <DIO_SetPinVal+0x7a>
 1e0:	80 95       	com	r24
 1e2:	82 23       	and	r24, r18
 1e4:	8b bb       	out	0x1b, r24	; 27
 1e6:	08 95       	ret
 1e8:	28 b3       	in	r18, 0x18	; 24
 1ea:	81 e0       	ldi	r24, 0x01	; 1
 1ec:	90 e0       	ldi	r25, 0x00	; 0
 1ee:	01 c0       	rjmp	.+2      	; 0x1f2 <DIO_SetPinVal+0x92>
 1f0:	88 0f       	add	r24, r24
 1f2:	6a 95       	dec	r22
 1f4:	ea f7       	brpl	.-6      	; 0x1f0 <DIO_SetPinVal+0x90>
 1f6:	80 95       	com	r24
 1f8:	82 23       	and	r24, r18
 1fa:	88 bb       	out	0x18, r24	; 24
 1fc:	08 95       	ret
 1fe:	25 b3       	in	r18, 0x15	; 21
 200:	81 e0       	ldi	r24, 0x01	; 1
 202:	90 e0       	ldi	r25, 0x00	; 0
 204:	01 c0       	rjmp	.+2      	; 0x208 <DIO_SetPinVal+0xa8>
 206:	88 0f       	add	r24, r24
 208:	6a 95       	dec	r22
 20a:	ea f7       	brpl	.-6      	; 0x206 <DIO_SetPinVal+0xa6>
 20c:	80 95       	com	r24
 20e:	82 23       	and	r24, r18
 210:	85 bb       	out	0x15, r24	; 21
 212:	08 95       	ret
 214:	22 b3       	in	r18, 0x12	; 18
 216:	81 e0       	ldi	r24, 0x01	; 1
 218:	90 e0       	ldi	r25, 0x00	; 0
 21a:	01 c0       	rjmp	.+2      	; 0x21e <DIO_SetPinVal+0xbe>
 21c:	88 0f       	add	r24, r24
 21e:	6a 95       	dec	r22
 220:	ea f7       	brpl	.-6      	; 0x21c <DIO_SetPinVal+0xbc>
 222:	80 95       	com	r24
 224:	82 23       	and	r24, r18
 226:	82 bb       	out	0x12, r24	; 18
 228:	08 95       	ret

0000022a <LCD_WriteCommand>:
 22a:	cf 93       	push	r28
 22c:	c8 2f       	mov	r28, r24
 22e:	40 e0       	ldi	r20, 0x00	; 0
 230:	61 e0       	ldi	r22, 0x01	; 1
 232:	81 e0       	ldi	r24, 0x01	; 1
 234:	0e 94 b0 00 	call	0x160	; 0x160 <DIO_SetPinVal>
 238:	40 e0       	ldi	r20, 0x00	; 0
 23a:	62 e0       	ldi	r22, 0x02	; 2
 23c:	81 e0       	ldi	r24, 0x01	; 1
 23e:	0e 94 b0 00 	call	0x160	; 0x160 <DIO_SetPinVal>
 242:	40 e0       	ldi	r20, 0x00	; 0
 244:	63 e0       	ldi	r22, 0x03	; 3
 246:	81 e0       	ldi	r24, 0x01	; 1
 248:	0e 94 b0 00 	call	0x160	; 0x160 <DIO_SetPinVal>
 24c:	8b b3       	in	r24, 0x1b	; 27
 24e:	9c 2f       	mov	r25, r28
 250:	90 7f       	andi	r25, 0xF0	; 240
 252:	8f 70       	andi	r24, 0x0F	; 15
 254:	89 2b       	or	r24, r25
 256:	8b bb       	out	0x1b, r24	; 27
 258:	41 e0       	ldi	r20, 0x01	; 1
 25a:	63 e0       	ldi	r22, 0x03	; 3
 25c:	81 e0       	ldi	r24, 0x01	; 1
 25e:	0e 94 b0 00 	call	0x160	; 0x160 <DIO_SetPinVal>
 262:	8f e9       	ldi	r24, 0x9F	; 159
 264:	9f e0       	ldi	r25, 0x0F	; 15
 266:	01 97       	sbiw	r24, 0x01	; 1
 268:	f1 f7       	brne	.-4      	; 0x266 <LCD_WriteCommand+0x3c>
 26a:	00 c0       	rjmp	.+0      	; 0x26c <LCD_WriteCommand+0x42>
 26c:	00 00       	nop
 26e:	40 e0       	ldi	r20, 0x00	; 0
 270:	63 e0       	ldi	r22, 0x03	; 3
 272:	81 e0       	ldi	r24, 0x01	; 1
 274:	0e 94 b0 00 	call	0x160	; 0x160 <DIO_SetPinVal>
 278:	2b b3       	in	r18, 0x1b	; 27
 27a:	30 e1       	ldi	r19, 0x10	; 16
 27c:	c3 9f       	mul	r28, r19
 27e:	c0 01       	movw	r24, r0
 280:	11 24       	eor	r1, r1
 282:	92 2f       	mov	r25, r18
 284:	9f 70       	andi	r25, 0x0F	; 15
 286:	89 2b       	or	r24, r25
 288:	8b bb       	out	0x1b, r24	; 27
 28a:	41 e0       	ldi	r20, 0x01	; 1
 28c:	63 e0       	ldi	r22, 0x03	; 3
 28e:	81 e0       	ldi	r24, 0x01	; 1
 290:	0e 94 b0 00 	call	0x160	; 0x160 <DIO_SetPinVal>
 294:	8f e9       	ldi	r24, 0x9F	; 159
 296:	9f e0       	ldi	r25, 0x0F	; 15
 298:	01 97       	sbiw	r24, 0x01	; 1
 29a:	f1 f7       	brne	.-4      	; 0x298 <LCD_WriteCommand+0x6e>
 29c:	00 c0       	rjmp	.+0      	; 0x29e <LCD_WriteCommand+0x74>
 29e:	00 00       	nop
 2a0:	40 e0       	ldi	r20, 0x00	; 0
 2a2:	63 e0       	ldi	r22, 0x03	; 3
 2a4:	81 e0       	ldi	r24, 0x01	; 1
 2a6:	0e 94 b0 00 	call	0x160	; 0x160 <DIO_SetPinVal>
 2aa:	8f e1       	ldi	r24, 0x1F	; 31
 2ac:	9e e4       	ldi	r25, 0x4E	; 78
 2ae:	01 97       	sbiw	r24, 0x01	; 1
 2b0:	f1 f7       	brne	.-4      	; 0x2ae <LCD_WriteCommand+0x84>
 2b2:	00 c0       	rjmp	.+0      	; 0x2b4 <LCD_WriteCommand+0x8a>
 2b4:	00 00       	nop
 2b6:	cf 91       	pop	r28
 2b8:	08 95       	ret

000002ba <LCD_Init>:
 2ba:	41 e0       	ldi	r20, 0x01	; 1
 2bc:	61 e0       	ldi	r22, 0x01	; 1
 2be:	81 e0       	ldi	r24, 0x01	; 1
 2c0:	0e 94 4b 00 	call	0x96	; 0x96 <DIO_SetPinDir>
 2c4:	41 e0       	ldi	r20, 0x01	; 1
 2c6:	62 e0       	ldi	r22, 0x02	; 2
 2c8:	81 e0       	ldi	r24, 0x01	; 1
 2ca:	0e 94 4b 00 	call	0x96	; 0x96 <DIO_SetPinDir>
 2ce:	41 e0       	ldi	r20, 0x01	; 1
 2d0:	63 e0       	ldi	r22, 0x03	; 3
 2d2:	81 e0       	ldi	r24, 0x01	; 1
 2d4:	0e 94 4b 00 	call	0x96	; 0x96 <DIO_SetPinDir>
 2d8:	41 e0       	ldi	r20, 0x01	; 1
 2da:	64 e0       	ldi	r22, 0x04	; 4
 2dc:	80 e0       	ldi	r24, 0x00	; 0
 2de:	0e 94 4b 00 	call	0x96	; 0x96 <DIO_SetPinDir>
 2e2:	41 e0       	ldi	r20, 0x01	; 1
 2e4:	65 e0       	ldi	r22, 0x05	; 5
 2e6:	80 e0       	ldi	r24, 0x00	; 0
 2e8:	0e 94 4b 00 	call	0x96	; 0x96 <DIO_SetPinDir>
 2ec:	41 e0       	ldi	r20, 0x01	; 1
 2ee:	66 e0       	ldi	r22, 0x06	; 6
 2f0:	80 e0       	ldi	r24, 0x00	; 0
 2f2:	0e 94 4b 00 	call	0x96	; 0x96 <DIO_SetPinDir>
 2f6:	41 e0       	ldi	r20, 0x01	; 1
 2f8:	67 e0       	ldi	r22, 0x07	; 7
 2fa:	80 e0       	ldi	r24, 0x00	; 0
 2fc:	0e 94 4b 00 	call	0x96	; 0x96 <DIO_SetPinDir>
 300:	2f ef       	ldi	r18, 0xFF	; 255
 302:	81 ee       	ldi	r24, 0xE1	; 225
 304:	94 e0       	ldi	r25, 0x04	; 4
 306:	21 50       	subi	r18, 0x01	; 1
 308:	80 40       	sbci	r24, 0x00	; 0
 30a:	90 40       	sbci	r25, 0x00	; 0
 30c:	e1 f7       	brne	.-8      	; 0x306 <LCD_Init+0x4c>
 30e:	00 c0       	rjmp	.+0      	; 0x310 <LCD_Init+0x56>
 310:	00 00       	nop
 312:	83 e3       	ldi	r24, 0x33	; 51
 314:	0e 94 15 01 	call	0x22a	; 0x22a <LCD_WriteCommand>
 318:	82 e3       	ldi	r24, 0x32	; 50
 31a:	0e 94 15 01 	call	0x22a	; 0x22a <LCD_WriteCommand>
 31e:	88 e2       	ldi	r24, 0x28	; 40
 320:	0e 94 15 01 	call	0x22a	; 0x22a <LCD_WriteCommand>
 324:	8c e0       	ldi	r24, 0x0C	; 12
 326:	0e 94 15 01 	call	0x22a	; 0x22a <LCD_WriteCommand>
 32a:	81 e0       	ldi	r24, 0x01	; 1
 32c:	0e 94 15 01 	call	0x22a	; 0x22a <LCD_WriteCommand>
 330:	86 e0       	ldi	r24, 0x06	; 6
 332:	0e 94 15 01 	call	0x22a	; 0x22a <LCD_WriteCommand>
 336:	82 e0       	ldi	r24, 0x02	; 2
 338:	0c 94 15 01 	jmp	0x22a	; 0x22a <LCD_WriteCommand>

0000033c <LCD_WriteChar>:
 33c:	cf 93       	push	r28
 33e:	c8 2f       	mov	r28, r24
 340:	41 e0       	ldi	r20, 0x01	; 1
 342:	61 e0       	ldi	r22, 0x01	; 1
 344:	81 e0       	ldi	r24, 0x01	; 1
 346:	0e 94 b0 00 	call	0x160	; 0x160 <DIO_SetPinVal>
 34a:	40 e0       	ldi	r20, 0x00	; 0
 34c:	62 e0       	ldi	r22, 0x02	; 2
 34e:	81 e0       	ldi	r24, 0x01	; 1
 350:	0e 94 b0 00 	call	0x160	; 0x160 <DIO_SetPinVal>
 354:	40 e0       	ldi	r20, 0x00	; 0
 356:	63 e0       	ldi	r22, 0x03	; 3
 358:	81 e0       	ldi	r24, 0x01	; 1
 35a:	0e 94 b0 00 	call	0x160	; 0x160 <DIO_SetPinVal>
 35e:	8b b3       	in	r24, 0x1b	; 27
 360:	9c 2f       	mov	r25, r28
 362:	90 7f       	andi	r25, 0xF0	; 240
 364:	8f 70       	andi	r24, 0x0F	; 15
 366:	89 2b       	or	r24, r25
 368:	8b bb       	out	0x1b, r24	; 27
 36a:	41 e0       	ldi	r20, 0x01	; 1
 36c:	63 e0       	ldi	r22, 0x03	; 3
 36e:	81 e0       	ldi	r24, 0x01	; 1
 370:	0e 94 b0 00 	call	0x160	; 0x160 <DIO_SetPinVal>
 374:	8f e9       	ldi	r24, 0x9F	; 159
 376:	9f e0       	ldi	r25, 0x0F	; 15
 378:	01 97       	sbiw	r24, 0x01	; 1
 37a:	f1 f7       	brne	.-4      	; 0x378 <LCD_WriteChar+0x3c>
 37c:	00 c0       	rjmp	.+0      	; 0x37e <LCD_WriteChar+0x42>
 37e:	00 00       	nop
 380:	40 e0       	ldi	r20, 0x00	; 0
 382:	63 e0       	ldi	r22, 0x03	; 3
 384:	81 e0       	ldi	r24, 0x01	; 1
 386:	0e 94 b0 00 	call	0x160	; 0x160 <DIO_SetPinVal>
 38a:	2b b3       	in	r18, 0x1b	; 27
 38c:	30 e1       	ldi	r19, 0x10	; 16
 38e:	c3 9f       	mul	r28, r19
 390:	c0 01       	movw	r24, r0
 392:	11 24       	eor	r1, r1
 394:	92 2f       	mov	r25, r18
 396:	9f 70       	andi	r25, 0x0F	; 15
 398:	89 2b       	or	r24, r25
 39a:	8b bb       	out	0x1b, r24	; 27
 39c:	41 e0       	ldi	r20, 0x01	; 1
 39e:	63 e0       	ldi	r22, 0x03	; 3
 3a0:	81 e0       	ldi	r24, 0x01	; 1
 3a2:	0e 94 b0 00 	call	0x160	; 0x160 <DIO_SetPinVal>
 3a6:	8f e9       	ldi	r24, 0x9F	; 159
 3a8:	9f e0       	ldi	r25, 0x0F	; 15
 3aa:	01 97       	sbiw	r24, 0x01	; 1
 3ac:	f1 f7       	brne	.-4      	; 0x3aa <LCD_WriteChar+0x6e>
 3ae:	00 c0       	rjmp	.+0      	; 0x3b0 <LCD_WriteChar+0x74>
 3b0:	00 00       	nop
 3b2:	40 e0       	ldi	r20, 0x00	; 0
 3b4:	63 e0       	ldi	r22, 0x03	; 3
 3b6:	81 e0       	ldi	r24, 0x01	; 1
 3b8:	0e 94 b0 00 	call	0x160	; 0x160 <DIO_SetPinVal>
 3bc:	8f e1       	ldi	r24, 0x1F	; 31
 3be:	9e e4       	ldi	r25, 0x4E	; 78
 3c0:	01 97       	sbiw	r24, 0x01	; 1
 3c2:	f1 f7       	brne	.-4      	; 0x3c0 <LCD_WriteChar+0x84>
 3c4:	00 c0       	rjmp	.+0      	; 0x3c6 <LCD_WriteChar+0x8a>
 3c6:	00 00       	nop
 3c8:	cf 91       	pop	r28
 3ca:	08 95       	ret

000003cc <LCD_Clear>:
 3cc:	81 e0       	ldi	r24, 0x01	; 1
 3ce:	0c 94 15 01 	jmp	0x22a	; 0x22a <LCD_WriteCommand>

000003d2 <LCD_WriteInteger>:
 3d2:	4f 92       	push	r4
 3d4:	5f 92       	push	r5
 3d6:	6f 92       	push	r6
 3d8:	7f 92       	push	r7
 3da:	8f 92       	push	r8
 3dc:	9f 92       	push	r9
 3de:	af 92       	push	r10
 3e0:	bf 92       	push	r11
 3e2:	cf 92       	push	r12
 3e4:	df 92       	push	r13
 3e6:	ef 92       	push	r14
 3e8:	ff 92       	push	r15
 3ea:	4b 01       	movw	r8, r22
 3ec:	5c 01       	movw	r10, r24
 3ee:	97 ff       	sbrs	r25, 7
 3f0:	0b c0       	rjmp	.+22     	; 0x408 <__LOCK_REGION_LENGTH__+0x8>
 3f2:	8d e2       	ldi	r24, 0x2D	; 45
 3f4:	0e 94 9e 01 	call	0x33c	; 0x33c <LCD_WriteChar>
 3f8:	b0 94       	com	r11
 3fa:	a0 94       	com	r10
 3fc:	90 94       	com	r9
 3fe:	80 94       	com	r8
 400:	81 1c       	adc	r8, r1
 402:	91 1c       	adc	r9, r1
 404:	a1 1c       	adc	r10, r1
 406:	b1 1c       	adc	r11, r1
 408:	61 e0       	ldi	r22, 0x01	; 1
 40a:	70 e0       	ldi	r23, 0x00	; 0
 40c:	80 e0       	ldi	r24, 0x00	; 0
 40e:	90 e0       	ldi	r25, 0x00	; 0
 410:	3a e0       	ldi	r19, 0x0A	; 10
 412:	43 2e       	mov	r4, r19
 414:	51 2c       	mov	r5, r1
 416:	61 2c       	mov	r6, r1
 418:	71 2c       	mov	r7, r1
 41a:	81 14       	cp	r8, r1
 41c:	91 04       	cpc	r9, r1
 41e:	a1 04       	cpc	r10, r1
 420:	b1 04       	cpc	r11, r1
 422:	a9 f0       	breq	.+42     	; 0x44e <__LOCK_REGION_LENGTH__+0x4e>
 424:	aa e0       	ldi	r26, 0x0A	; 10
 426:	b0 e0       	ldi	r27, 0x00	; 0
 428:	9b 01       	movw	r18, r22
 42a:	ac 01       	movw	r20, r24
 42c:	0e 94 8c 02 	call	0x518	; 0x518 <__muluhisi3>
 430:	6b 01       	movw	r12, r22
 432:	7c 01       	movw	r14, r24
 434:	c5 01       	movw	r24, r10
 436:	b4 01       	movw	r22, r8
 438:	a3 01       	movw	r20, r6
 43a:	92 01       	movw	r18, r4
 43c:	0e 94 6d 02 	call	0x4da	; 0x4da <__divmodsi4>
 440:	6c 0d       	add	r22, r12
 442:	7d 1d       	adc	r23, r13
 444:	8e 1d       	adc	r24, r14
 446:	9f 1d       	adc	r25, r15
 448:	49 01       	movw	r8, r18
 44a:	5a 01       	movw	r10, r20
 44c:	e6 cf       	rjmp	.-52     	; 0x41a <__LOCK_REGION_LENGTH__+0x1a>
 44e:	2a e0       	ldi	r18, 0x0A	; 10
 450:	c2 2e       	mov	r12, r18
 452:	d1 2c       	mov	r13, r1
 454:	e1 2c       	mov	r14, r1
 456:	f1 2c       	mov	r15, r1
 458:	62 30       	cpi	r22, 0x02	; 2
 45a:	71 05       	cpc	r23, r1
 45c:	81 05       	cpc	r24, r1
 45e:	91 05       	cpc	r25, r1
 460:	6c f0       	brlt	.+26     	; 0x47c <__LOCK_REGION_LENGTH__+0x7c>
 462:	a7 01       	movw	r20, r14
 464:	96 01       	movw	r18, r12
 466:	0e 94 6d 02 	call	0x4da	; 0x4da <__divmodsi4>
 46a:	49 01       	movw	r8, r18
 46c:	5a 01       	movw	r10, r20
 46e:	80 e3       	ldi	r24, 0x30	; 48
 470:	86 0f       	add	r24, r22
 472:	0e 94 9e 01 	call	0x33c	; 0x33c <LCD_WriteChar>
 476:	b4 01       	movw	r22, r8
 478:	c5 01       	movw	r24, r10
 47a:	ee cf       	rjmp	.-36     	; 0x458 <__LOCK_REGION_LENGTH__+0x58>
 47c:	ff 90       	pop	r15
 47e:	ef 90       	pop	r14
 480:	df 90       	pop	r13
 482:	cf 90       	pop	r12
 484:	bf 90       	pop	r11
 486:	af 90       	pop	r10
 488:	9f 90       	pop	r9
 48a:	8f 90       	pop	r8
 48c:	7f 90       	pop	r7
 48e:	6f 90       	pop	r6
 490:	5f 90       	pop	r5
 492:	4f 90       	pop	r4
 494:	08 95       	ret

00000496 <main>:
 496:	0e 94 5d 01 	call	0x2ba	; 0x2ba <LCD_Init>
 49a:	0e 94 5a 02 	call	0x4b4	; 0x4b4 <TempSensor_Init>
 49e:	0e 94 5c 02 	call	0x4b8	; 0x4b8 <TempSensor_Read>
 4a2:	ec 01       	movw	r28, r24
 4a4:	0e 94 e6 01 	call	0x3cc	; 0x3cc <LCD_Clear>
 4a8:	be 01       	movw	r22, r28
 4aa:	80 e0       	ldi	r24, 0x00	; 0
 4ac:	90 e0       	ldi	r25, 0x00	; 0
 4ae:	0e 94 e9 01 	call	0x3d2	; 0x3d2 <LCD_WriteInteger>
 4b2:	f5 cf       	rjmp	.-22     	; 0x49e <main+0x8>

000004b4 <TempSensor_Init>:
 4b4:	0c 94 36 00 	jmp	0x6c	; 0x6c <ADC_Init>

000004b8 <TempSensor_Read>:
 4b8:	0e 94 45 00 	call	0x8a	; 0x8a <ADC_Read>
 4bc:	24 ef       	ldi	r18, 0xF4	; 244
 4be:	31 e0       	ldi	r19, 0x01	; 1
 4c0:	ac 01       	movw	r20, r24
 4c2:	42 9f       	mul	r20, r18
 4c4:	c0 01       	movw	r24, r0
 4c6:	43 9f       	mul	r20, r19
 4c8:	90 0d       	add	r25, r0
 4ca:	52 9f       	mul	r21, r18
 4cc:	90 0d       	add	r25, r0
 4ce:	11 24       	eor	r1, r1
 4d0:	89 2f       	mov	r24, r25
 4d2:	86 95       	lsr	r24
 4d4:	86 95       	lsr	r24
 4d6:	90 e0       	ldi	r25, 0x00	; 0
 4d8:	08 95       	ret

000004da <__divmodsi4>:
 4da:	05 2e       	mov	r0, r21
 4dc:	97 fb       	bst	r25, 7
 4de:	1e f4       	brtc	.+6      	; 0x4e6 <__divmodsi4+0xc>
 4e0:	00 94       	com	r0
 4e2:	0e 94 84 02 	call	0x508	; 0x508 <__negsi2>
 4e6:	57 fd       	sbrc	r21, 7
 4e8:	07 d0       	rcall	.+14     	; 0x4f8 <__divmodsi4_neg2>
 4ea:	0e 94 97 02 	call	0x52e	; 0x52e <__udivmodsi4>
 4ee:	07 fc       	sbrc	r0, 7
 4f0:	03 d0       	rcall	.+6      	; 0x4f8 <__divmodsi4_neg2>
 4f2:	4e f4       	brtc	.+18     	; 0x506 <__divmodsi4_exit>
 4f4:	0c 94 84 02 	jmp	0x508	; 0x508 <__negsi2>

000004f8 <__divmodsi4_neg2>:
 4f8:	50 95       	com	r21
 4fa:	40 95       	com	r20
 4fc:	30 95       	com	r19
 4fe:	21 95       	neg	r18
 500:	3f 4f       	sbci	r19, 0xFF	; 255
 502:	4f 4f       	sbci	r20, 0xFF	; 255
 504:	5f 4f       	sbci	r21, 0xFF	; 255

00000506 <__divmodsi4_exit>:
 506:	08 95       	ret

00000508 <__negsi2>:
 508:	90 95       	com	r25
 50a:	80 95       	com	r24
 50c:	70 95       	com	r23
 50e:	61 95       	neg	r22
 510:	7f 4f       	sbci	r23, 0xFF	; 255
 512:	8f 4f       	sbci	r24, 0xFF	; 255
 514:	9f 4f       	sbci	r25, 0xFF	; 255
 516:	08 95       	ret

00000518 <__muluhisi3>:
 518:	0e 94 b9 02 	call	0x572	; 0x572 <__umulhisi3>
 51c:	a5 9f       	mul	r26, r21
 51e:	90 0d       	add	r25, r0
 520:	b4 9f       	mul	r27, r20
 522:	90 0d       	add	r25, r0
 524:	a4 9f       	mul	r26, r20
 526:	80 0d       	add	r24, r0
 528:	91 1d       	adc	r25, r1
 52a:	11 24       	eor	r1, r1
 52c:	08 95       	ret

0000052e <__udivmodsi4>:
 52e:	a1 e2       	ldi	r26, 0x21	; 33
 530:	1a 2e       	mov	r1, r26
 532:	aa 1b       	sub	r26, r26
 534:	bb 1b       	sub	r27, r27
 536:	fd 01       	movw	r30, r26
 538:	0d c0       	rjmp	.+26     	; 0x554 <__udivmodsi4_ep>

0000053a <__udivmodsi4_loop>:
 53a:	aa 1f       	adc	r26, r26
 53c:	bb 1f       	adc	r27, r27
 53e:	ee 1f       	adc	r30, r30
 540:	ff 1f       	adc	r31, r31
 542:	a2 17       	cp	r26, r18
 544:	b3 07       	cpc	r27, r19
 546:	e4 07       	cpc	r30, r20
 548:	f5 07       	cpc	r31, r21
 54a:	20 f0       	brcs	.+8      	; 0x554 <__udivmodsi4_ep>
 54c:	a2 1b       	sub	r26, r18
 54e:	b3 0b       	sbc	r27, r19
 550:	e4 0b       	sbc	r30, r20
 552:	f5 0b       	sbc	r31, r21

00000554 <__udivmodsi4_ep>:
 554:	66 1f       	adc	r22, r22
 556:	77 1f       	adc	r23, r23
 558:	88 1f       	adc	r24, r24
 55a:	99 1f       	adc	r25, r25
 55c:	1a 94       	dec	r1
 55e:	69 f7       	brne	.-38     	; 0x53a <__udivmodsi4_loop>
 560:	60 95       	com	r22
 562:	70 95       	com	r23
 564:	80 95       	com	r24
 566:	90 95       	com	r25
 568:	9b 01       	movw	r18, r22
 56a:	ac 01       	movw	r20, r24
 56c:	bd 01       	movw	r22, r26
 56e:	cf 01       	movw	r24, r30
 570:	08 95       	ret

00000572 <__umulhisi3>:
 572:	a2 9f       	mul	r26, r18
 574:	b0 01       	movw	r22, r0
 576:	b3 9f       	mul	r27, r19
 578:	c0 01       	movw	r24, r0
 57a:	a3 9f       	mul	r26, r19
 57c:	70 0d       	add	r23, r0
 57e:	81 1d       	adc	r24, r1
 580:	11 24       	eor	r1, r1
 582:	91 1d       	adc	r25, r1
 584:	b2 9f       	mul	r27, r18
 586:	70 0d       	add	r23, r0
 588:	81 1d       	adc	r24, r1
 58a:	11 24       	eor	r1, r1
 58c:	91 1d       	adc	r25, r1
 58e:	08 95       	ret

00000590 <_exit>:
 590:	f8 94       	cli

00000592 <__stop_program>:
 592:	ff cf       	rjmp	.-2      	; 0x592 <__stop_program>
